(lp0
S'poi'
p1
aS'salary'
p2
aS'total_payments'
p3
aS'bonus'
p4
aS'deferred_income'
p5
aS'total_stock_value'
p6
aS'expenses'
p7
aS'exercised_stock_options'
p8
aS'long_term_incentive'
p9
aS'restricted_stock'
p10
aS'director_fees'
p11
aS'percent_from_this_person_to_poi'
p12
aS'percent_from_poi_to_this_person'
p13
aS'percent_shared_receipt'
p14
a.